target datalayout = "e-m:e-p270:32:32-p271:32:32-p272:64:64-i64:64-i128:128-f80:128-n8:16:32:64-S128"
target triple = "x86_64-pc-linux-gnu"

%class.LogTagSet = type { ptr, i64, [5 x i32], [4 x i8], %class.LogOutputList, %class.LogDecorators, ptr }
%class.LogOutputList = type <{ [6 x ptr], i32, [4 x i8] }>
%class.LogDecorators = type { i32 }
%class.AdaptiveSizePolicy = type { ptr, double, i64, i64, i64, %class.GCOverheadChecker, ptr, ptr, ptr, ptr, ptr, ptr, ptr, ptr, ptr, ptr, ptr, ptr, ptr, ptr, double, double, double, i8, i32, i32, i32, i32, i8, i8, i8, i32, i32, i64, i64 }
%class.GCOverheadChecker = type { i8, i32 }
%class.AdaptiveWeightedAverage = type { float, i32, i32, i8, float }

@AdaptiveSizeMajorGCDecayTimeScale = external global i64, align 8
@UseAdaptiveSizeDecayMajorGCCost = external global i8, align 1
@.str.7 = private unnamed_addr constant [75 x i8] c"decaying_gc_cost: major interval average: %f  time since last major gc: %f\00", align 1
@.str.8 = private unnamed_addr constant [47 x i8] c"  major gc cost: %f  decayed major gc cost: %f\00", align 1
@_ZN16LogTagSetMappingILN6LogTag4typeE49ELS1_40ELS1_0ELS1_0ELS1_0ELS1_0EE7_tagsetE = linkonce_odr hidden global %class.LogTagSet zeroinitializer, comdat, align 8

; Function Attrs: mustprogress nounwind uwtable
define linkonce_odr hidden noundef zeroext i1 @_ZNK13LogOutputList8is_levelEN8LogLevel4typeE(ptr noundef nonnull align 8 dereferenceable(52) %0, i32 noundef %1) #1 comdat align 2 {
  %3 = alloca ptr, align 8
  %4 = alloca i32, align 4
  store ptr %0, ptr %3, align 8
  store i32 %1, ptr %4, align 4
  %5 = load ptr, ptr %3, align 8
  %6 = getelementptr inbounds %class.LogOutputList, ptr %5, i32 0, i32 0
  %7 = load i32, ptr %4, align 4
  %8 = zext i32 %7 to i64
  %9 = getelementptr inbounds [6 x ptr], ptr %6, i64 0, i64 %8
  %10 = load volatile ptr, ptr %9, align 8
  %11 = icmp ne ptr %10, null
  ret i1 %11
}

; Function Attrs: mustprogress nounwind uwtable
define linkonce_odr hidden noundef zeroext i1 @_ZNK9LogTagSet8is_levelEN8LogLevel4typeE(ptr noundef nonnull align 8 dereferenceable(112) %0, i32 noundef %1) #1 comdat align 2 {
  %3 = alloca ptr, align 8
  %4 = alloca i32, align 4
  store ptr %0, ptr %3, align 8
  store i32 %1, ptr %4, align 4
  %5 = load ptr, ptr %3, align 8
  %6 = getelementptr inbounds %class.LogTagSet, ptr %5, i32 0, i32 4
  %7 = load i32, ptr %4, align 4
  %8 = call noundef zeroext i1 @_ZNK13LogOutputList8is_levelEN8LogLevel4typeE(ptr noundef nonnull align 8 dereferenceable(52) %6, i32 noundef %7)
  ret i1 %8
}

; Function Attrs: mustprogress nounwind uwtable
define linkonce_odr hidden noundef nonnull align 8 dereferenceable(112) ptr @_ZN16LogTagSetMappingILN6LogTag4typeE49ELS1_40ELS1_0ELS1_0ELS1_0ELS1_0EE6tagsetEv() #1 comdat align 2 {
  ret ptr @_ZN16LogTagSetMappingILN6LogTag4typeE49ELS1_40ELS1_0ELS1_0ELS1_0ELS1_0EE7_tagsetE
}

; Function Attrs: mustprogress nounwind uwtable
define linkonce_odr hidden noundef float @_Z4MAX2IfET_S0_S0_(float noundef %0, float noundef %1) #1 comdat {
  %3 = alloca float, align 4
  %4 = alloca float, align 4
  store float %0, ptr %3, align 4
  store float %1, ptr %4, align 4
  %5 = load float, ptr %3, align 4
  %6 = load float, ptr %4, align 4
  %7 = fcmp ogt float %5, %6
  br i1 %7, label %8, label %10

8:                                                ; preds = %2
  %9 = load float, ptr %3, align 4
  br label %12

10:                                               ; preds = %2
  %11 = load float, ptr %4, align 4
  br label %12

12:                                               ; preds = %10, %8
  %13 = phi float [ %9, %8 ], [ %11, %10 ]
  ret float %13
}

; Function Attrs: mustprogress nounwind uwtable
define linkonce_odr hidden noundef float @_ZNK23AdaptiveWeightedAverage7averageEv(ptr noundef nonnull align 4 dereferenceable(20) %0) #1 comdat align 2 {
  %2 = alloca ptr, align 8
  store ptr %0, ptr %2, align 8
  %3 = load ptr, ptr %2, align 8
  %4 = getelementptr inbounds %class.AdaptiveWeightedAverage, ptr %3, i32 0, i32 0
  %5 = load float, ptr %4, align 4
  ret float %5
}

; Function Attrs: mustprogress nounwind uwtable
define linkonce_odr hidden noundef double @_Z4MIN2IdET_S0_S0_(double noundef %0, double noundef %1) #1 comdat {
  %3 = alloca double, align 8
  %4 = alloca double, align 8
  store double %0, ptr %3, align 8
  store double %1, ptr %4, align 8
  %5 = load double, ptr %3, align 8
  %6 = load double, ptr %4, align 8
  %7 = fcmp olt double %5, %6
  br i1 %7, label %8, label %10

8:                                                ; preds = %2
  %9 = load double, ptr %3, align 8
  br label %12

10:                                               ; preds = %2
  %11 = load double, ptr %4, align 8
  br label %12

12:                                               ; preds = %10, %8
  %13 = phi double [ %9, %8 ], [ %11, %10 ]
  ret double %13
}

; Function Attrs: mustprogress nounwind uwtable
define linkonce_odr hidden noundef double @_ZNK18AdaptiveSizePolicy13minor_gc_costEv(ptr noundef nonnull align 8 dereferenceable(232) %0) #1 comdat align 2 {
  %2 = alloca ptr, align 8
  store ptr %0, ptr %2, align 8
  %3 = load ptr, ptr %2, align 8
  %4 = getelementptr inbounds %class.AdaptiveSizePolicy, ptr %3, i32 0, i32 8
  %5 = load ptr, ptr %4, align 8
  %6 = call noundef float @_ZNK23AdaptiveWeightedAverage7averageEv(ptr noundef nonnull align 4 dereferenceable(20) %5)
  %7 = call noundef float @_Z4MAX2IfET_S0_S0_(float noundef 0.000000e+00, float noundef %6)
  %8 = fpext float %7 to double
  ret double %8
}

; Function Attrs: mustprogress nounwind uwtable
define linkonce_odr hidden noundef zeroext i1 @_ZN7LogImplILN6LogTag4typeE49ELS1_40ELS1_0ELS1_0ELS1_0ELS1_0EE8is_levelEN8LogLevel4typeE(i32 noundef %0) #1 comdat align 2 {
  %2 = alloca i32, align 4
  store i32 %0, ptr %2, align 4
  %3 = call noundef nonnull align 8 dereferenceable(112) ptr @_ZN16LogTagSetMappingILN6LogTag4typeE49ELS1_40ELS1_0ELS1_0ELS1_0ELS1_0EE6tagsetEv()
  %4 = load i32, ptr %2, align 4
  %5 = call noundef zeroext i1 @_ZNK9LogTagSet8is_levelEN8LogLevel4typeE(ptr noundef nonnull align 8 dereferenceable(112) %3, i32 noundef %4)
  ret i1 %5
}

; Function Attrs: mustprogress nounwind uwtable
define hidden noundef double @_ZNK18AdaptiveSizePolicy22decaying_major_gc_costEv(ptr noundef nonnull align 8 dereferenceable(232) %0) #1 align 2 {
  %2 = alloca ptr, align 8
  %3 = alloca double, align 8
  %4 = alloca double, align 8
  %5 = alloca double, align 8
  store ptr %0, ptr %2, align 8
  %6 = load ptr, ptr %2, align 8
  %7 = load ptr, ptr %6, align 8
  %8 = getelementptr inbounds ptr, ptr %7, i64 3
  %9 = load ptr, ptr %8, align 8
  %10 = call noundef double %9(ptr noundef nonnull align 8 dereferenceable(232) %6)
  store double %10, ptr %3, align 8
  %11 = call noundef double @_ZNK18AdaptiveSizePolicy13major_gc_costEv(ptr noundef nonnull align 8 dereferenceable(232) %6)
  store double %11, ptr %4, align 8
  %12 = load double, ptr %4, align 8
  store double %12, ptr %5, align 8
  %13 = load ptr, ptr %6, align 8
  %14 = getelementptr inbounds ptr, ptr %13, i64 2
  %15 = load ptr, ptr %14, align 8
  %16 = call noundef double %15(ptr noundef nonnull align 8 dereferenceable(232) %6)
  %17 = fcmp ogt double %16, 0.000000e+00
  br i1 %17, label %18, label %30

18:                                               ; preds = %1
  %19 = call noundef double @_ZNK18AdaptiveSizePolicy13major_gc_costEv(ptr noundef nonnull align 8 dereferenceable(232) %6)
  %20 = load i64, ptr @AdaptiveSizeMajorGCDecayTimeScale, align 8
  %21 = uitofp i64 %20 to double
  %22 = load double, ptr %3, align 8
  %23 = fmul double %21, %22
  %24 = fmul double %19, %23
  %25 = load ptr, ptr %6, align 8
  %26 = getelementptr inbounds ptr, ptr %25, i64 2
  %27 = load ptr, ptr %26, align 8
  %28 = call noundef double %27(ptr noundef nonnull align 8 dereferenceable(232) %6)
  %29 = fdiv double %24, %28
  store double %29, ptr %5, align 8
  br label %30

30:                                               ; preds = %18, %1
  %31 = load double, ptr %4, align 8
  %32 = load double, ptr %5, align 8
  %33 = call noundef double @_Z4MIN2IdET_S0_S0_(double noundef %31, double noundef %32)
  ret double %33
}

; Function Attrs: mustprogress nounwind uwtable
define linkonce_odr hidden noundef double @_ZNK18AdaptiveSizePolicy13major_gc_costEv(ptr noundef nonnull align 8 dereferenceable(232) %0) #1 comdat align 2 {
  %2 = alloca ptr, align 8
  store ptr %0, ptr %2, align 8
  %3 = load ptr, ptr %2, align 8
  %4 = getelementptr inbounds %class.AdaptiveSizePolicy, ptr %3, i32 0, i32 10
  %5 = load ptr, ptr %4, align 8
  %6 = call noundef float @_ZNK23AdaptiveWeightedAverage7averageEv(ptr noundef nonnull align 4 dereferenceable(20) %5)
  %7 = call noundef float @_Z4MAX2IfET_S0_S0_(float noundef 0.000000e+00, float noundef %6)
  %8 = fpext float %7 to double
  ret double %8
}

; Function Attrs: mustprogress nounwind uwtable
define hidden noundef double @_ZNK18AdaptiveSizePolicy16decaying_gc_costEv(ptr noundef nonnull align 8 dereferenceable(232) %0) #1 align 2 {
  %2 = alloca ptr, align 8
  %3 = alloca double, align 8
  %4 = alloca double, align 8
  %5 = alloca double, align 8
  %6 = alloca double, align 8
  store ptr %0, ptr %2, align 8
  %7 = load ptr, ptr %2, align 8
  %8 = call noundef double @_ZNK18AdaptiveSizePolicy13major_gc_costEv(ptr noundef nonnull align 8 dereferenceable(232) %7)
  store double %8, ptr %3, align 8
  %9 = load ptr, ptr %7, align 8
  %10 = getelementptr inbounds ptr, ptr %9, i64 3
  %11 = load ptr, ptr %10, align 8
  %12 = call noundef double %11(ptr noundef nonnull align 8 dereferenceable(232) %7)
  store double %12, ptr %4, align 8
  %13 = load i8, ptr @UseAdaptiveSizeDecayMajorGCCost, align 1
  %14 = trunc i8 %13 to i1
  br i1 %14, label %15, label %47

15:                                               ; preds = %1
  %16 = load i64, ptr @AdaptiveSizeMajorGCDecayTimeScale, align 8
  %17 = icmp ugt i64 %16, 0
  br i1 %17, label %18, label %47

18:                                               ; preds = %15
  %19 = load double, ptr %4, align 8
  %20 = fcmp ogt double %19, 0.000000e+00
  br i1 %20, label %21, label %47

21:                                               ; preds = %18
  %22 = load ptr, ptr %7, align 8
  %23 = getelementptr inbounds ptr, ptr %22, i64 2
  %24 = load ptr, ptr %23, align 8
  %25 = call noundef double %24(ptr noundef nonnull align 8 dereferenceable(232) %7)
  store double %25, ptr %5, align 8
  %26 = load double, ptr %5, align 8
  %27 = load i64, ptr @AdaptiveSizeMajorGCDecayTimeScale, align 8
  %28 = uitofp i64 %27 to double
  %29 = load double, ptr %4, align 8
  %30 = fmul double %28, %29
  %31 = fcmp ogt double %26, %30
  br i1 %31, label %32, label %46

32:                                               ; preds = %21
  %33 = call noundef double @_ZNK18AdaptiveSizePolicy22decaying_major_gc_costEv(ptr noundef nonnull align 8 dereferenceable(232) %7)
  store double %33, ptr %3, align 8
  %34 = call noundef zeroext i1 @_ZN7LogImplILN6LogTag4typeE49ELS1_40ELS1_0ELS1_0ELS1_0ELS1_0EE8is_levelEN8LogLevel4typeE(i32 noundef 1)
  br i1 %34, label %36, label %35

35:                                               ; preds = %32
  br label %39

36:                                               ; preds = %32
  %37 = load double, ptr %4, align 8
  %38 = load double, ptr %5, align 8
  call void (ptr, ...) @_ZN7LogImplILN6LogTag4typeE49ELS1_40ELS1_0ELS1_0ELS1_0ELS1_0EE5writeILN8LogLevel4typeE1EEEvPKcz(ptr noundef @.str.7, double noundef %37, double noundef %38)
  br label %39

39:                                               ; preds = %36, %35
  %40 = call noundef zeroext i1 @_ZN7LogImplILN6LogTag4typeE49ELS1_40ELS1_0ELS1_0ELS1_0ELS1_0EE8is_levelEN8LogLevel4typeE(i32 noundef 1)
  br i1 %40, label %42, label %41

41:                                               ; preds = %39
  br label %45

42:                                               ; preds = %39
  %43 = call noundef double @_ZNK18AdaptiveSizePolicy13major_gc_costEv(ptr noundef nonnull align 8 dereferenceable(232) %7)
  %44 = load double, ptr %3, align 8
  call void (ptr, ...) @_ZN7LogImplILN6LogTag4typeE49ELS1_40ELS1_0ELS1_0ELS1_0ELS1_0EE5writeILN8LogLevel4typeE1EEEvPKcz(ptr noundef @.str.8, double noundef %43, double noundef %44)
  br label %45

45:                                               ; preds = %42, %41
  br label %46

46:                                               ; preds = %45, %21
  br label %47

47:                                               ; preds = %46, %18, %15, %1
  %48 = load double, ptr %3, align 8
  %49 = call noundef double @_ZNK18AdaptiveSizePolicy13minor_gc_costEv(ptr noundef nonnull align 8 dereferenceable(232) %7)
  %50 = fadd double %48, %49
  %51 = call noundef double @_Z4MIN2IdET_S0_S0_(double noundef 1.000000e+00, double noundef %50)
  store double %51, ptr %6, align 8
  %52 = load double, ptr %6, align 8
  ret double %52
}