; Function Attrs: mustprogress nounwind uwtable
define hidden noundef double @_ZNK18AdaptiveSizePolicy16decaying_gc_costEv(ptr noundef nonnull align 8 dereferenceable(232) %0) local_unnamed_addr #0 align 2 {
  %2 = getelementptr inbounds i8, ptr %0, i64 80
  %3 = load ptr, ptr %2, align 8
  %4 = load float, ptr %3, align 4
  %5 = fcmp olt float %4, 0.000000e+00
  %6 = select i1 %5, float 0.000000e+00, float %4
  %7 = fpext float %6 to double
  %8 = load ptr, ptr %0, align 8
  %9 = getelementptr inbounds i8, ptr %8, i64 24
  %10 = load ptr, ptr %9, align 8
  %11 = tail call noundef double %10(ptr noundef nonnull align 8 dereferenceable(232) %0) #10
  %12 = load i8, ptr @UseAdaptiveSizeDecayMajorGCCost, align 1
  %13 = trunc i8 %12 to i1
  %14 = load i64, ptr @AdaptiveSizeMajorGCDecayTimeScale, align 8
  %15 = icmp ne i64 %14, 0
  %or.cond = select i1 %13, i1 %15, i1 false
  %16 = fcmp ogt double %11, 0.000000e+00
  %or.cond3 = and i1 %16, %or.cond
  br i1 %or.cond3, label %17, label %68

17:                                               ; preds = %1
  %18 = load ptr, ptr %0, align 8
  %19 = getelementptr inbounds i8, ptr %18, i64 16
  %20 = load ptr, ptr %19, align 8
  %21 = tail call noundef double %20(ptr noundef nonnull align 8 dereferenceable(232) %0) #10
  %22 = load i64, ptr @AdaptiveSizeMajorGCDecayTimeScale, align 8
  %23 = uitofp i64 %22 to double
  %24 = fmul double %11, %23
  %25 = fcmp ogt double %21, %24
  br i1 %25, label %26, label %68

26:                                               ; preds = %17
  %27 = load ptr, ptr %0, align 8
  %28 = getelementptr inbounds i8, ptr %27, i64 24
  %29 = load ptr, ptr %28, align 8
  %30 = tail call noundef double %29(ptr noundef nonnull align 8 dereferenceable(232) %0) #10
  %31 = load ptr, ptr %2, align 8
  %32 = load float, ptr %31, align 4
  %33 = fcmp olt float %32, 0.000000e+00
  %34 = select i1 %33, float 0.000000e+00, float %32
  %35 = fpext float %34 to double
  %36 = load ptr, ptr %0, align 8
  %37 = getelementptr inbounds i8, ptr %36, i64 16
  %38 = load ptr, ptr %37, align 8
  %39 = tail call noundef double %38(ptr noundef nonnull align 8 dereferenceable(232) %0) #10
  %40 = fcmp ogt double %39, 0.000000e+00
  br i1 %40, label %41, label %_ZNK18AdaptiveSizePolicy22decaying_major_gc_costEv.exit

41:                                               ; preds = %26
  %42 = load ptr, ptr %2, align 8
  %43 = load float, ptr %42, align 4
  %44 = fcmp olt float %43, 0.000000e+00
  %45 = select i1 %44, float 0.000000e+00, float %43
  %46 = fpext float %45 to double
  %47 = load i64, ptr @AdaptiveSizeMajorGCDecayTimeScale, align 8
  %48 = uitofp i64 %47 to double
  %49 = fmul double %30, %48
  %50 = fmul double %49, %46
  %51 = load ptr, ptr %0, align 8
  %52 = getelementptr inbounds i8, ptr %51, i64 16
  %53 = load ptr, ptr %52, align 8
  %54 = tail call noundef double %53(ptr noundef nonnull align 8 dereferenceable(232) %0) #10
  %55 = fdiv double %50, %54
  br label %_ZNK18AdaptiveSizePolicy22decaying_major_gc_costEv.exit

_ZNK18AdaptiveSizePolicy22decaying_major_gc_costEv.exit: ; preds = %26, %41
  %.0.i = phi double [ %55, %41 ], [ %35, %26 ]
  %56 = fcmp ogt double %.0.i, %35
  %57 = select i1 %56, double %35, double %.0.i
  %58 = load volatile ptr, ptr getelementptr inbounds (i8, ptr @_ZN16LogTagSetMappingILN6LogTag4typeE49ELS1_40ELS1_0ELS1_0ELS1_0ELS1_0EE7_tagsetE, i64 48), align 8
  %.not = icmp eq ptr %58, null
  br i1 %.not, label %60, label %59

59:                                               ; preds = %_ZNK18AdaptiveSizePolicy22decaying_major_gc_costEv.exit
  tail call void (ptr, ...) @_ZN7LogImplILN6LogTag4typeE49ELS1_40ELS1_0ELS1_0ELS1_0ELS1_0EE5writeILN8LogLevel4typeE1EEEvPKcz(ptr noundef nonnull @.str.7, double noundef %11, double noundef %21)
  br label %60

60:                                               ; preds = %_ZNK18AdaptiveSizePolicy22decaying_major_gc_costEv.exit, %59
  %61 = load volatile ptr, ptr getelementptr inbounds (i8, ptr @_ZN16LogTagSetMappingILN6LogTag4typeE49ELS1_40ELS1_0ELS1_0ELS1_0ELS1_0EE7_tagsetE, i64 48), align 8
  %.not14 = icmp eq ptr %61, null
  br i1 %.not14, label %68, label %62

62:                                               ; preds = %60
  %63 = load ptr, ptr %2, align 8
  %64 = load float, ptr %63, align 4
  %65 = fcmp olt float %64, 0.000000e+00
  %66 = select i1 %65, float 0.000000e+00, float %64
  %67 = fpext float %66 to double
  tail call void (ptr, ...) @_ZN7LogImplILN6LogTag4typeE49ELS1_40ELS1_0ELS1_0ELS1_0ELS1_0EE5writeILN8LogLevel4typeE1EEEvPKcz(ptr noundef nonnull @.str.8, double noundef %67, double noundef %57)
  br label %68

68:                                               ; preds = %17, %60, %62, %1
  %.0 = phi double [ %57, %62 ], [ %57, %60 ], [ %7, %17 ], [ %7, %1 ]
  %69 = getelementptr inbounds i8, ptr %0, i64 64
  %70 = load ptr, ptr %69, align 8
  %71 = load float, ptr %70, align 4
  %72 = fcmp olt float %71, 0.000000e+00
  %73 = select i1 %72, float 0.000000e+00, float %71
  %74 = fpext float %73 to double
  %75 = fadd double %.0, %74
  %76 = fcmp ogt double %75, 1.000000e+00
  %77 = select i1 %76, double 1.000000e+00, double %75
  ret double %77
}